target datalayout = "e-m:e-p270:32:32-p271:32:32-p272:64:64-i64:64-i128:128-f80:128-n8:16:32:64-S128"
target triple = "x86_64-pc-linux-gnu"

%struct.AVFormatContext = type { ptr, ptr, ptr, ptr, ptr, i32, i32, ptr, i32, ptr, i32, ptr, ptr, i64, i64, i64, i32, i32, i32, i64, i64, ptr, i32, i32, ptr, i32, i32, i32, i32, ptr, i64, i32, i32, %struct.AVIOInterruptCB, i32, i32, i32, i32, i64, i32, i32, i32, i32, i32, i32, i32, i32, i32, i32, i32, i32, i64, i32, i32, i32, i32, i32, ptr, ptr, ptr, ptr, i32, ptr, ptr, ptr, ptr, i32, ptr, ptr, i64, ptr, ptr, ptr, i64 }
%struct.AVIOInterruptCB = type { ptr, ptr }
%struct.AVStream = type { ptr, i32, i32, ptr, ptr, %struct.AVRational, i64, i64, i64, i32, i32, %struct.AVRational, ptr, %struct.AVRational, %struct.AVPacket, i32, %struct.AVRational, i32 }
%struct.AVPacket = type { ptr, i64, i64, ptr, i32, i32, i32, ptr, i32, i64, i64, ptr, ptr, %struct.AVRational }
%struct.AVRational = type { i32, i32 }
%struct.AVCodecParameters = type { i32, i32, i32, ptr, i32, ptr, i32, i32, i64, i32, i32, i32, i32, i32, i32, %struct.AVRational, %struct.AVRational, i32, i32, i32, i32, i32, i32, i32, %struct.AVChannelLayout, i32, i32, i32, i32, i32, i32 }
%struct.AVChannelLayout = type { i32, i32, %union.anon, ptr }
%union.anon = type { i64 }

@.str.2 = private unnamed_addr constant [6 x i8] c"title\00", align 1
@.str.3 = private unnamed_addr constant [28 x i8] c"Channels %d not supported!\0A\00", align 1

; Function Attrs: nounwind uwtable
define internal i32 @aea_read_header(ptr noundef %0) #0 {
  %2 = alloca i32, align 4
  %3 = alloca ptr, align 8
  %4 = alloca ptr, align 8
  %5 = alloca [257 x i8], align 16
  %6 = alloca i32, align 4
  %7 = alloca i32, align 4
  %8 = alloca i32, align 4
  store ptr %0, ptr %3, align 8, !tbaa !18
  call void @llvm.lifetime.start.p0(i64 8, ptr %4) #3
  %9 = load ptr, ptr %3, align 8, !tbaa !18
  %10 = call ptr @avformat_new_stream(ptr noundef %9, ptr noundef null)
  store ptr %10, ptr %4, align 8, !tbaa !20
  call void @llvm.lifetime.start.p0(i64 257, ptr %5) #3
  call void @llvm.lifetime.start.p0(i64 4, ptr %6) #3
  call void @llvm.lifetime.start.p0(i64 4, ptr %7) #3
  %11 = load ptr, ptr %4, align 8, !tbaa !20
  %12 = icmp ne ptr %11, null
  br i1 %12, label %14, label %13

13:                                               ; preds = %1
  store i32 -12, ptr %2, align 4
  store i32 1, ptr %8, align 4
  br label %97

14:                                               ; preds = %1
  %15 = load ptr, ptr %3, align 8, !tbaa !18
  %16 = getelementptr inbounds nuw %struct.AVFormatContext, ptr %15, i32 0, i32 4
  %17 = load ptr, ptr %16, align 8, !tbaa !22
  %18 = call i32 @avio_rl32(ptr noundef %17)
  %19 = load ptr, ptr %3, align 8, !tbaa !18
  %20 = getelementptr inbounds nuw %struct.AVFormatContext, ptr %19, i32 0, i32 4
  %21 = load ptr, ptr %20, align 8, !tbaa !22
  %22 = getelementptr inbounds [257 x i8], ptr %5, i64 0, i64 0
  %23 = call i32 @ffio_read_size(ptr noundef %21, ptr noundef %22, i32 noundef 256)
  store i32 %23, ptr %7, align 4, !tbaa !15
  %24 = load i32, ptr %7, align 4, !tbaa !15
  %25 = icmp slt i32 %24, 0
  br i1 %25, label %26, label %28

26:                                               ; preds = %14
  %27 = load i32, ptr %7, align 4, !tbaa !15
  store i32 %27, ptr %2, align 4
  store i32 1, ptr %8, align 4
  br label %97

28:                                               ; preds = %14
  %29 = getelementptr inbounds nuw [257 x i8], ptr %5, i64 0, i64 256
  store i8 0, ptr %29, align 16, !tbaa !14
  %30 = getelementptr inbounds [257 x i8], ptr %5, i64 0, i64 0
  %31 = load i8, ptr %30, align 16, !tbaa !14
  %32 = sext i8 %31 to i32
  %33 = icmp ne i32 %32, 0
  br i1 %33, label %34, label %39

34:                                               ; preds = %28
  %35 = load ptr, ptr %4, align 8, !tbaa !20
  %36 = getelementptr inbounds nuw %struct.AVStream, ptr %35, i32 0, i32 12
  %37 = getelementptr inbounds [257 x i8], ptr %5, i64 0, i64 0
  %38 = call i32 @av_dict_set(ptr noundef %36, ptr noundef @.str.2, ptr noundef %37, i32 noundef 0)
  br label %39

39:                                               ; preds = %34, %28
  %40 = load ptr, ptr %3, align 8, !tbaa !18
  %41 = getelementptr inbounds nuw %struct.AVFormatContext, ptr %40, i32 0, i32 4
  %42 = load ptr, ptr %41, align 8, !tbaa !22
  %43 = call i32 @avio_rl32(ptr noundef %42)
  %44 = load ptr, ptr %3, align 8, !tbaa !18
  %45 = getelementptr inbounds nuw %struct.AVFormatContext, ptr %44, i32 0, i32 4
  %46 = load ptr, ptr %45, align 8, !tbaa !22
  %47 = call i32 @avio_r8(ptr noundef %46)
  store i32 %47, ptr %6, align 4, !tbaa !15
  %48 = load ptr, ptr %3, align 8, !tbaa !18
  %49 = getelementptr inbounds nuw %struct.AVFormatContext, ptr %48, i32 0, i32 4
  %50 = load ptr, ptr %49, align 8, !tbaa !22
  %51 = call i64 @avio_skip(ptr noundef %50, i64 noundef 1783)
  %52 = load ptr, ptr %4, align 8, !tbaa !20
  %53 = getelementptr inbounds nuw %struct.AVStream, ptr %52, i32 0, i32 3
  %54 = load ptr, ptr %53, align 8, !tbaa !37
  %55 = getelementptr inbounds nuw %struct.AVCodecParameters, ptr %54, i32 0, i32 0
  store i32 1, ptr %55, align 8, !tbaa !44
  %56 = load ptr, ptr %4, align 8, !tbaa !20
  %57 = getelementptr inbounds nuw %struct.AVStream, ptr %56, i32 0, i32 3
  %58 = load ptr, ptr %57, align 8, !tbaa !37
  %59 = getelementptr inbounds nuw %struct.AVCodecParameters, ptr %58, i32 0, i32 1
  store i32 86062, ptr %59, align 4, !tbaa !47
  %60 = load ptr, ptr %4, align 8, !tbaa !20
  %61 = getelementptr inbounds nuw %struct.AVStream, ptr %60, i32 0, i32 3
  %62 = load ptr, ptr %61, align 8, !tbaa !37
  %63 = getelementptr inbounds nuw %struct.AVCodecParameters, ptr %62, i32 0, i32 25
  store i32 44100, ptr %63, align 8, !tbaa !48
  %64 = load i32, ptr %6, align 4, !tbaa !15
  %65 = mul nsw i32 146000, %64
  %66 = sext i32 %65 to i64
  %67 = load ptr, ptr %4, align 8, !tbaa !20
  %68 = getelementptr inbounds nuw %struct.AVStream, ptr %67, i32 0, i32 3
  %69 = load ptr, ptr %68, align 8, !tbaa !37
  %70 = getelementptr inbounds nuw %struct.AVCodecParameters, ptr %69, i32 0, i32 8
  store i64 %66, ptr %70, align 8, !tbaa !49
  %71 = load i32, ptr %6, align 4, !tbaa !15
  %72 = icmp ne i32 %71, 1
  br i1 %72, label %73, label %79

73:                                               ; preds = %39
  %74 = load i32, ptr %6, align 4, !tbaa !15
  %75 = icmp ne i32 %74, 2
  br i1 %75, label %76, label %79

76:                                               ; preds = %73
  %77 = load ptr, ptr %3, align 8, !tbaa !18
  %78 = load i32, ptr %6, align 4, !tbaa !15
  call void (ptr, i32, ptr, ...) @av_log(ptr noundef %77, i32 noundef 16, ptr noundef @.str.3, i32 noundef %78)
  store i32 -1094995529, ptr %2, align 4
  store i32 1, ptr %8, align 4
  br label %97

79:                                               ; preds = %73, %39
  %80 = load ptr, ptr %4, align 8, !tbaa !20
  %81 = getelementptr inbounds nuw %struct.AVStream, ptr %80, i32 0, i32 3
  %82 = load ptr, ptr %81, align 8, !tbaa !37
  %83 = getelementptr inbounds nuw %struct.AVCodecParameters, ptr %82, i32 0, i32 24
  %84 = load i32, ptr %6, align 4, !tbaa !15
  call void @av_channel_layout_default(ptr noundef %83, i32 noundef %84)
  %85 = load ptr, ptr %4, align 8, !tbaa !20
  %86 = getelementptr inbounds nuw %struct.AVStream, ptr %85, i32 0, i32 3
  %87 = load ptr, ptr %86, align 8, !tbaa !37
  %88 = getelementptr inbounds nuw %struct.AVCodecParameters, ptr %87, i32 0, i32 24
  %89 = getelementptr inbounds nuw %struct.AVChannelLayout, ptr %88, i32 0, i32 1
  %90 = load i32, ptr %89, align 4, !tbaa !50
  %91 = mul nsw i32 212, %90
  %92 = load ptr, ptr %4, align 8, !tbaa !20
  %93 = getelementptr inbounds nuw %struct.AVStream, ptr %92, i32 0, i32 3
  %94 = load ptr, ptr %93, align 8, !tbaa !37
  %95 = getelementptr inbounds nuw %struct.AVCodecParameters, ptr %94, i32 0, i32 26
  store i32 %91, ptr %95, align 4, !tbaa !51
  %96 = load ptr, ptr %4, align 8, !tbaa !20
  call void @avpriv_set_pts_info(ptr noundef %96, i32 noundef 64, i32 noundef 1, i32 noundef 44100)
  store i32 0, ptr %2, align 4
  store i32 1, ptr %8, align 4
  br label %97

97:                                               ; preds = %79, %76, %26, %13
  call void @llvm.lifetime.end.p0(i64 4, ptr %7) #3
  call void @llvm.lifetime.end.p0(i64 4, ptr %6) #3
  call void @llvm.lifetime.end.p0(i64 257, ptr %5) #3
  call void @llvm.lifetime.end.p0(i64 8, ptr %4) #3
  %98 = load i32, ptr %2, align 4
  ret i32 %98
}