; Function Attrs: nounwind uwtable
define internal range(i32 -2147483648, 1) i32 @aea_read_header(ptr noundef %0) #1 {
  %2 = alloca [257 x i8], align 16
  %3 = tail call ptr @avformat_new_stream(ptr noundef %0, ptr noundef null) #5
  call void @llvm.lifetime.start.p0(i64 257, ptr nonnull %2) #5
  %.not = icmp eq ptr %3, null
  br i1 %.not, label %40, label %4

4:                                                ; preds = %1
  %5 = getelementptr inbounds nuw i8, ptr %0, i64 32
  %6 = load ptr, ptr %5, align 8, !tbaa !15
  %7 = tail call i32 @avio_rl32(ptr noundef %6) #5
  %8 = load ptr, ptr %5, align 8, !tbaa !15
  %9 = call i32 @ffio_read_size(ptr noundef %8, ptr noundef nonnull %2, i32 noundef 256) #5
  %10 = icmp slt i32 %9, 0
  br i1 %10, label %40, label %11

11:                                               ; preds = %4
  %12 = getelementptr inbounds nuw i8, ptr %2, i64 256
  store i8 0, ptr %12, align 16, !tbaa !12
  %13 = load i8, ptr %2, align 16, !tbaa !12
  %.not28 = icmp eq i8 %13, 0
  br i1 %.not28, label %17, label %14

14:                                               ; preds = %11
  %15 = getelementptr inbounds nuw i8, ptr %3, i64 80
  %16 = call i32 @av_dict_set(ptr noundef nonnull %15, ptr noundef nonnull @.str.2, ptr noundef nonnull %2, i32 noundef 0) #5
  br label %17

17:                                               ; preds = %14, %11
  %18 = load ptr, ptr %5, align 8, !tbaa !15
  %19 = call i32 @avio_rl32(ptr noundef %18) #5
  %20 = load ptr, ptr %5, align 8, !tbaa !15
  %21 = call i32 @avio_r8(ptr noundef %20) #5
  %22 = load ptr, ptr %5, align 8, !tbaa !15
  %23 = call i64 @avio_skip(ptr noundef %22, i64 noundef 1783) #5
  %24 = getelementptr inbounds nuw i8, ptr %3, i64 16
  %25 = load ptr, ptr %24, align 8, !tbaa !30
  store i32 1, ptr %25, align 8, !tbaa !37
  %26 = getelementptr inbounds nuw i8, ptr %25, i64 4
  store i32 86062, ptr %26, align 4, !tbaa !40
  %27 = getelementptr inbounds nuw i8, ptr %25, i64 152
  store i32 44100, ptr %27, align 8, !tbaa !41
  %28 = mul nsw i32 %21, 146000
  %29 = sext i32 %28 to i64
  %30 = getelementptr inbounds nuw i8, ptr %25, i64 48
  store i64 %29, ptr %30, align 8, !tbaa !42
  %31 = add i32 %21, -3
  %or.cond = icmp ult i32 %31, -2
  br i1 %or.cond, label %32, label %33

32:                                               ; preds = %17
  call void (ptr, i32, ptr, ...) @av_log(ptr noundef nonnull %0, i32 noundef 16, ptr noundef nonnull @.str.3, i32 noundef %21) #5
  br label %40

33:                                               ; preds = %17
  %34 = getelementptr inbounds nuw i8, ptr %25, i64 128
  call void @av_channel_layout_default(ptr noundef nonnull %34, i32 noundef %21) #5
  %35 = load ptr, ptr %24, align 8, !tbaa !30
  %36 = getelementptr inbounds nuw i8, ptr %35, i64 132
  %37 = load i32, ptr %36, align 4, !tbaa !43
  %38 = mul nsw i32 %37, 212
  %39 = getelementptr inbounds nuw i8, ptr %35, i64 156
  store i32 %38, ptr %39, align 4, !tbaa !44
  call void @avpriv_set_pts_info(ptr noundef nonnull %3, i32 noundef 64, i32 noundef 1, i32 noundef 44100) #5
  br label %40

40:                                               ; preds = %4, %1, %33, %32
  %.0 = phi i32 [ -1094995529, %32 ], [ 0, %33 ], [ -12, %1 ], [ %9, %4 ]
  call void @llvm.lifetime.end.p0(i64 257, ptr nonnull %2) #5
  ret i32 %.0
}